target datalayout = "e-m:e-p270:32:32-p271:32:32-p272:64:64-i64:64-i128:128-f80:128-n8:16:32:64-S128"
target triple = "x86_64-pc-linux-gnu"

%"class.google::LogMessageFatal" = type { %"class.google::LogMessage" }
%"class.google::LogMessage" = type { ptr, ptr }

@.str = private unnamed_addr constant [108 x i8] c"generated/home/dtcxzyw/WorkSpace/Projects/compilers/llvm-opt-benchmark/bench/folly/folly/folly/Executor.cpp\00", align 1
@__func__._ZN5folly8Executor16keepAliveReleaseEv = private unnamed_addr constant [17 x i8] c"keepAliveRelease\00", align 1
@.str.3 = private unnamed_addr constant [51 x i8] c"() should not be called for folly::Executor types \00", align 1
@.str.4 = private unnamed_addr constant [41 x i8] c"which do not override keepAliveAcquire()\00", align 1

; Function Attrs: mustprogress nounwind uwtable
define void @_ZN5folly8Executor16keepAliveReleaseEv(ptr noundef nonnull align 8 dereferenceable(8) %0) unnamed_addr #0 align 2 personality ptr @__gxx_personality_v0 {
  %2 = alloca ptr, align 8
  %3 = alloca %"class.google::LogMessageFatal", align 8
  store ptr %0, ptr %2, align 8, !tbaa !7
  call void @llvm.lifetime.start.p0(i64 16, ptr %3) #19
  invoke void @_ZN6google15LogMessageFatalC1EPKci(ptr noundef nonnull align 8 dereferenceable(16) %3, ptr noundef @.str, i32 noundef 44)
          to label %4 unwind label %13

4:                                                ; preds = %1
  %5 = invoke noundef nonnull align 8 dereferenceable(8) ptr @_ZN6google10LogMessage6streamEv(ptr noundef nonnull align 8 dereferenceable(16) %3)
          to label %6 unwind label %13

6:                                                ; preds = %4
  %7 = invoke noundef nonnull align 8 dereferenceable(8) ptr @_ZStlsISt11char_traitsIcEERSt13basic_ostreamIcT_ES5_PKc(ptr noundef nonnull align 8 dereferenceable(8) %5, ptr noundef @__func__._ZN5folly8Executor16keepAliveReleaseEv)
          to label %8 unwind label %13

8:                                                ; preds = %6
  %9 = invoke noundef nonnull align 8 dereferenceable(8) ptr @_ZStlsISt11char_traitsIcEERSt13basic_ostreamIcT_ES5_PKc(ptr noundef nonnull align 8 dereferenceable(8) %7, ptr noundef @.str.3)
          to label %10 unwind label %13

10:                                               ; preds = %8
  %11 = invoke noundef nonnull align 8 dereferenceable(8) ptr @_ZStlsISt11char_traitsIcEERSt13basic_ostreamIcT_ES5_PKc(ptr noundef nonnull align 8 dereferenceable(8) %9, ptr noundef @.str.4)
          to label %12 unwind label %13

12:                                               ; preds = %10
  call void @_ZN6google15LogMessageFatalD1Ev(ptr noundef nonnull align 8 dereferenceable(16) %3) #18
  unreachable

13:                                               ; preds = %10, %8, %6, %4, %1
  %14 = landingpad { ptr, i32 }
          catch ptr null
  %15 = extractvalue { ptr, i32 } %14, 0
  call void @__clang_call_terminate(ptr %15) #18
  unreachable
}